target datalayout = "e-m:e-p270:32:32-p271:32:32-p272:64:64-i64:64-i128:128-f80:128-n8:16:32:64-S128"
target triple = "x86_64-pc-linux-gnu"

%"class.triggers::module_t" = type { ptr, %"class.std::vector.108" }
%"class.std::vector.108" = type { %"struct.std::_Vector_base.109" }
%"struct.std::_Vector_base.109" = type { %"struct.std::_Vector_base<triggers::trigger_t *, std::allocator<triggers::trigger_t *>>::_Vector_impl" }
%"struct.std::_Vector_base<triggers::trigger_t *, std::allocator<triggers::trigger_t *>>::_Vector_impl" = type { %"struct.std::_Vector_base<triggers::trigger_t *, std::allocator<triggers::trigger_t *>>::_Vector_impl_data" }
%"struct.std::_Vector_base<triggers::trigger_t *, std::allocator<triggers::trigger_t *>>::_Vector_impl_data" = type { ptr, ptr, ptr }

; Function Attrs: mustprogress nounwind uwtable
define linkonce_odr noundef nonnull align 8 dereferenceable(8) ptr @_ZNKSt6vectorIPN8triggers9trigger_tESaIS2_EEixEm(ptr noundef nonnull align 8 dereferenceable(24) %0, i64 noundef %1) #4 comdat align 2 {
  %3 = alloca ptr, align 8
  %4 = alloca i64, align 8
  store ptr %0, ptr %3, align 8, !tbaa !265
  store i64 %1, ptr %4, align 8, !tbaa !16
  %5 = load ptr, ptr %3, align 8
  %6 = getelementptr inbounds nuw %"struct.std::_Vector_base.109", ptr %5, i32 0, i32 0
  %7 = getelementptr inbounds nuw %"struct.std::_Vector_base<triggers::trigger_t *, std::allocator<triggers::trigger_t *>>::_Vector_impl_data", ptr %6, i32 0, i32 0
  %8 = load ptr, ptr %7, align 8, !tbaa !267
  %9 = load i64, ptr %4, align 8, !tbaa !16
  %10 = getelementptr inbounds nuw ptr, ptr %8, i64 %9
  ret ptr %10
}

; Function Attrs: mustprogress nounwind uwtable
define noundef i64 @_ZNK8triggers8module_t11tdata3_readEj(ptr noundef nonnull align 8 dereferenceable(32) %0, i32 noundef %1) #4 align 2 {
  %3 = alloca ptr, align 8
  %4 = alloca i32, align 4
  store ptr %0, ptr %3, align 8, !tbaa !260
  store i32 %1, ptr %4, align 4, !tbaa !28
  %5 = load ptr, ptr %3, align 8
  %6 = getelementptr inbounds nuw %"class.triggers::module_t", ptr %5, i32 0, i32 1
  %7 = load i32, ptr %4, align 4, !tbaa !28
  %8 = zext i32 %7 to i64
  %9 = call noundef nonnull align 8 dereferenceable(8) ptr @_ZNKSt6vectorIPN8triggers9trigger_tESaIS2_EEixEm(ptr noundef nonnull align 8 dereferenceable(24) %6, i64 noundef %8) #3
  %10 = load ptr, ptr %9, align 8, !tbaa !3
  %11 = getelementptr inbounds nuw %"class.triggers::module_t", ptr %5, i32 0, i32 0
  %12 = load ptr, ptr %11, align 8, !tbaa !274
  %13 = call noundef i64 @_ZNK8triggers9trigger_t11tdata3_readEPK11processor_t(ptr noundef nonnull align 8 dereferenceable(44) %10, ptr noundef %12) #3
  ret i64 %13
}